target datalayout = "e-m:e-p270:32:32-p271:32:32-p272:64:64-i64:64-i128:128-f80:128-n8:16:32:64-S128"
target triple = "x86_64-pc-linux-gnu"

%struct.LogicalTapeSet = type { ptr, ptr, i32, i64, i64, i64, i8, ptr, i64, i64, i8 }
%union.PGIOAlignedBlock = type { double, [8184 x i8] }

@.str.1 = private unnamed_addr constant [10 x i8] c"logtape.c\00", align 1
@.str.6 = private unnamed_addr constant [47 x i8] c"could not seek to block %lld of temporary file\00", align 1
@__func__.ltsWriteBlock = private unnamed_addr constant [14 x i8] c"ltsWriteBlock\00", align 1

; Function Attrs: nounwind uwtable
define internal void @ltsWriteBlock(ptr noundef %0, i64 noundef %1, ptr noundef %2) #0 {
  %4 = alloca ptr, align 8
  %5 = alloca i64, align 8
  %6 = alloca ptr, align 8
  %7 = alloca %union.PGIOAlignedBlock, align 4096
  %8 = alloca ptr, align 8
  %9 = alloca i32, align 4
  %10 = alloca i64, align 8
  %11 = alloca ptr, align 8
  %12 = alloca ptr, align 8
  store ptr %0, ptr %4, align 8
  store i64 %1, ptr %5, align 8
  store ptr %2, ptr %6, align 8
  br label %13

13:                                               ; preds = %56, %3
  %14 = load i64, ptr %5, align 8
  %15 = load ptr, ptr %4, align 8
  %16 = getelementptr inbounds nuw %struct.LogicalTapeSet, ptr %15, i32 0, i32 4
  %17 = load i64, ptr %16, align 8
  %18 = icmp sgt i64 %14, %17
  br i1 %18, label %19, label %62

19:                                               ; preds = %13
  call void @llvm.lifetime.start.p0(i64 8192, ptr %7) #7
  br label %20

20:                                               ; preds = %19
  call void @llvm.lifetime.start.p0(i64 8, ptr %8) #7
  %21 = getelementptr inbounds [8192 x i8], ptr %7, i64 0, i64 0
  store ptr %21, ptr %8, align 8
  call void @llvm.lifetime.start.p0(i64 4, ptr %9) #7
  store i32 0, ptr %9, align 4
  call void @llvm.lifetime.start.p0(i64 8, ptr %10) #7
  store i64 8192, ptr %10, align 8
  %22 = load ptr, ptr %8, align 8
  %23 = ptrtoint ptr %22 to i64
  %24 = and i64 %23, 7
  %25 = icmp eq i64 %24, 0
  br i1 %25, label %26, label %49

26:                                               ; preds = %20
  %27 = load i64, ptr %10, align 8
  %28 = and i64 %27, 7
  %29 = icmp eq i64 %28, 0
  br i1 %29, label %30, label %49

30:                                               ; preds = %26
  %31 = load i32, ptr %9, align 4
  %32 = icmp eq i32 %31, 0
  br i1 %32, label %33, label %49

33:                                               ; preds = %30
  %34 = load i64, ptr %10, align 8
  %35 = icmp ule i64 %34, 1024
  br i1 %35, label %36, label %49

36:                                               ; preds = %33
  call void @llvm.lifetime.start.p0(i64 8, ptr %11) #7
  %37 = load ptr, ptr %8, align 8
  store ptr %37, ptr %11, align 8
  call void @llvm.lifetime.start.p0(i64 8, ptr %12) #7
  %38 = load ptr, ptr %11, align 8
  %39 = load i64, ptr %10, align 8
  %40 = getelementptr inbounds nuw i8, ptr %38, i64 %39
  store ptr %40, ptr %12, align 8
  br label %41

41:                                               ; preds = %45, %36
  %42 = load ptr, ptr %11, align 8
  %43 = load ptr, ptr %12, align 8
  %44 = icmp ult ptr %42, %43
  br i1 %44, label %45, label %48

45:                                               ; preds = %41
  %46 = load ptr, ptr %11, align 8
  %47 = getelementptr inbounds nuw i64, ptr %46, i32 1
  store ptr %47, ptr %11, align 8
  store i64 0, ptr %46, align 8
  br label %41, !llvm.loop !8

48:                                               ; preds = %41
  call void @llvm.lifetime.end.p0(i64 8, ptr %12) #7
  call void @llvm.lifetime.end.p0(i64 8, ptr %11) #7
  br label %54

49:                                               ; preds = %33, %30, %26, %20
  %50 = load ptr, ptr %8, align 8
  %51 = load i32, ptr %9, align 4
  %52 = trunc i32 %51 to i8
  %53 = load i64, ptr %10, align 8
  call void @llvm.memset.p0.i64(ptr align 1 %50, i8 %52, i64 %53, i1 false)
  br label %54

54:                                               ; preds = %49, %48
  call void @llvm.lifetime.end.p0(i64 8, ptr %10) #7
  call void @llvm.lifetime.end.p0(i64 4, ptr %9) #7
  call void @llvm.lifetime.end.p0(i64 8, ptr %8) #7
  br label %55

55:                                               ; preds = %54
  br label %56

56:                                               ; preds = %55
  %57 = load ptr, ptr %4, align 8
  %58 = load ptr, ptr %4, align 8
  %59 = getelementptr inbounds nuw %struct.LogicalTapeSet, ptr %58, i32 0, i32 4
  %60 = load i64, ptr %59, align 8
  %61 = getelementptr inbounds [8192 x i8], ptr %7, i64 0, i64 0
  call void @ltsWriteBlock(ptr noundef %57, i64 noundef %60, ptr noundef %61)
  call void @llvm.lifetime.end.p0(i64 8192, ptr %7) #7
  br label %13, !llvm.loop !9

62:                                               ; preds = %13
  %63 = load ptr, ptr %4, align 8
  %64 = getelementptr inbounds nuw %struct.LogicalTapeSet, ptr %63, i32 0, i32 0
  %65 = load ptr, ptr %64, align 8
  %66 = load i64, ptr %5, align 8
  %67 = call i32 @BufFileSeekBlock(ptr noundef %65, i64 noundef %66)
  %68 = icmp ne i32 %67, 0
  br i1 %68, label %69, label %81

69:                                               ; preds = %62
  br label %70

70:                                               ; preds = %69
  br i1 true, label %71, label %73

71:                                               ; preds = %70
  %72 = call zeroext i1 @errstart_cold(i32 noundef 21, ptr noundef null) #8
  br i1 %72, label %75, label %79

73:                                               ; preds = %70
  %74 = call zeroext i1 @errstart(i32 noundef 21, ptr noundef null)
  br i1 %74, label %75, label %79

75:                                               ; preds = %73, %71
  %76 = call i32 @errcode_for_file_access()
  %77 = load i64, ptr %5, align 8
  %78 = call i32 (ptr, ...) @errmsg(ptr noundef @.str.6, i64 noundef %77)
  call void @errfinish(ptr noundef @.str.1, i32 noundef 267, ptr noundef @__func__.ltsWriteBlock)
  br label %79

79:                                               ; preds = %75, %73, %71
  unreachable

80:                                               ; No predecessors!
  br label %81

81:                                               ; preds = %80, %62
  %82 = load ptr, ptr %4, align 8
  %83 = getelementptr inbounds nuw %struct.LogicalTapeSet, ptr %82, i32 0, i32 0
  %84 = load ptr, ptr %83, align 8
  %85 = load ptr, ptr %6, align 8
  call void @BufFileWrite(ptr noundef %84, ptr noundef %85, i64 noundef 8192)
  %86 = load i64, ptr %5, align 8
  %87 = load ptr, ptr %4, align 8
  %88 = getelementptr inbounds nuw %struct.LogicalTapeSet, ptr %87, i32 0, i32 4
  %89 = load i64, ptr %88, align 8
  %90 = icmp eq i64 %86, %89
  br i1 %90, label %91, label %96

91:                                               ; preds = %81
  %92 = load ptr, ptr %4, align 8
  %93 = getelementptr inbounds nuw %struct.LogicalTapeSet, ptr %92, i32 0, i32 4
  %94 = load i64, ptr %93, align 8
  %95 = add i64 %94, 1
  store i64 %95, ptr %93, align 8
  br label %96

96:                                               ; preds = %91, %81
  ret void
}