; Function Attrs: nounwind uwtable
define internal fastcc void @ltsWriteBlock(ptr noundef captures(none) %0, i64 noundef %1, ptr noundef %2) unnamed_addr #0 {
  %4 = alloca %union.PGIOAlignedBlock, align 4096
  %5 = getelementptr inbounds nuw i8, ptr %0, i64 32
  %6 = load i64, ptr %5, align 8
  %7 = icmp sgt i64 %1, %6
  br i1 %7, label %.lr.ph, label %._crit_edge

.lr.ph:                                           ; preds = %3, %.lr.ph
  %8 = phi i64 [ %9, %.lr.ph ], [ %6, %3 ]
  call void @llvm.lifetime.start.p0(i64 8192, ptr nonnull %4) #10
  call void @llvm.memset.p0.i64(ptr noundef nonnull align 4096 dereferenceable(8192) %4, i8 0, i64 8192, i1 false)
  call fastcc void @ltsWriteBlock(ptr noundef nonnull %0, i64 noundef %8, ptr noundef nonnull %4)
  call void @llvm.lifetime.end.p0(i64 8192, ptr nonnull %4) #10
  %9 = load i64, ptr %5, align 8
  %10 = icmp sgt i64 %1, %9
  br i1 %10, label %.lr.ph, label %._crit_edge, !llvm.loop !9

._crit_edge:                                      ; preds = %.lr.ph, %3
  %11 = load ptr, ptr %0, align 8
  %12 = call i32 @BufFileSeekBlock(ptr noundef %11, i64 noundef %1) #10
  %.not = icmp eq i32 %12, 0
  br i1 %.not, label %17, label %13

13:                                               ; preds = %._crit_edge
  %14 = call zeroext i1 @errstart_cold(i32 noundef 21, ptr noundef null) #11
  call void @llvm.assume(i1 %14)
  %15 = call i32 @errcode_for_file_access() #10
  %16 = call i32 (ptr, ...) @errmsg(ptr noundef nonnull @.str.6, i64 noundef %1) #10
  call void @errfinish(ptr noundef nonnull @.str.1, i32 noundef 267, ptr noundef nonnull @__func__.ltsWriteBlock) #10
  unreachable

17:                                               ; preds = %._crit_edge
  %18 = load ptr, ptr %0, align 8
  call void @BufFileWrite(ptr noundef %18, ptr noundef %2, i64 noundef 8192) #10
  %19 = load i64, ptr %5, align 8
  %20 = icmp eq i64 %1, %19
  br i1 %20, label %21, label %23

21:                                               ; preds = %17
  %22 = add i64 %1, 1
  store i64 %22, ptr %5, align 8
  br label %23

23:                                               ; preds = %21, %17
  ret void
}